; ModuleID = '55/91.c'
source_filename = "55/91.c"
target datalayout = "e-m:e-p270:32:32-p271:32:32-p272:64:64-i64:64-f80:128-n8:16:32:64-S128"
target triple = "x86_64-pc-linux-gnu"

@.str = private unnamed_addr constant [7 x i8] c"%d%s%d\00", align 1
@.str.1 = private unnamed_addr constant [3 x i8] c"0\0A\00", align 1
@.str.2 = private unnamed_addr constant [3 x i8] c"%c\00", align 1
@.str.3 = private unnamed_addr constant [4 x i8] c"%c\0A\00", align 1

; Function Attrs: noinline nounwind uwtable
define dso_local i32 @main() #0 {
  %1 = alloca i32, align 4
  %2 = alloca i32, align 4
  %3 = alloca i32, align 4
  %4 = alloca i32, align 4
  %5 = alloca i32, align 4
  %6 = alloca i32, align 4
  %7 = alloca i32, align 4
  %8 = alloca [255 x i32], align 16
  %9 = alloca [255 x i8], align 16
  %10 = alloca i64, align 8
  store i32 0, i32* %1, align 4
  store i32 0, i32* %7, align 4
  store i64 0, i64* %10, align 8
  %11 = getelementptr inbounds [255 x i8], [255 x i8]* %9, i64 0, i64 0
  %12 = call i32 (i8*, ...) @__isoc99_scanf(i8* getelementptr inbounds ([7 x i8], [7 x i8]* @.str, i64 0, i64 0), i32* %2, i8* %11, i32* %3)
  %13 = getelementptr inbounds [255 x i8], [255 x i8]* %9, i64 0, i64 0
  %14 = call i64 @strlen(i8* %13) #4
  %15 = trunc i64 %14 to i32
  store i32 %15, i32* %4, align 4
  store i32 0, i32* %5, align 4
  br label %16

16:                                               ; preds = %82, %0
  %17 = load i32, i32* %5, align 4
  %18 = load i32, i32* %4, align 4
  %19 = icmp slt i32 %17, %18
  br i1 %19, label %20, label %85

20:                                               ; preds = %16
  %21 = load i32, i32* %5, align 4
  %22 = sext i32 %21 to i64
  %23 = getelementptr inbounds [255 x i8], [255 x i8]* %9, i64 0, i64 %22
  %24 = load i8, i8* %23, align 1
  %25 = sext i8 %24 to i32
  %26 = icmp sge i32 %25, 48
  br i1 %26, label %27, label %44

27:                                               ; preds = %20
  %28 = load i32, i32* %5, align 4
  %29 = sext i32 %28 to i64
  %30 = getelementptr inbounds [255 x i8], [255 x i8]* %9, i64 0, i64 %29
  %31 = load i8, i8* %30, align 1
  %32 = sext i8 %31 to i32
  %33 = icmp sle i32 %32, 57
  br i1 %33, label %34, label %44

34:                                               ; preds = %27
  %35 = load i32, i32* %5, align 4
  %36 = sext i32 %35 to i64
  %37 = getelementptr inbounds [255 x i8], [255 x i8]* %9, i64 0, i64 %36
  %38 = load i8, i8* %37, align 1
  %39 = sext i8 %38 to i32
  %40 = sub nsw i32 %39, 48
  %41 = load i32, i32* %5, align 4
  %42 = sext i32 %41 to i64
  %43 = getelementptr inbounds [255 x i32], [255 x i32]* %8, i64 0, i64 %42
  store i32 %40, i32* %43, align 4
  br label %81

44:                                               ; preds = %27, %20
  %45 = load i32, i32* %5, align 4
  %46 = sext i32 %45 to i64
  %47 = getelementptr inbounds [255 x i8], [255 x i8]* %9, i64 0, i64 %46
  %48 = load i8, i8* %47, align 1
  %49 = sext i8 %48 to i32
  %50 = icmp sge i32 %49, 97
  br i1 %50, label %51, label %69

51:                                               ; preds = %44
  %52 = load i32, i32* %5, align 4
  %53 = sext i32 %52 to i64
  %54 = getelementptr inbounds [255 x i8], [255 x i8]* %9, i64 0, i64 %53
  %55 = load i8, i8* %54, align 1
  %56 = sext i8 %55 to i32
  %57 = icmp sle i32 %56, 122
  br i1 %57, label %58, label %69

58:                                               ; preds = %51
  %59 = load i32, i32* %5, align 4
  %60 = sext i32 %59 to i64
  %61 = getelementptr inbounds [255 x i8], [255 x i8]* %9, i64 0, i64 %60
  %62 = load i8, i8* %61, align 1
  %63 = sext i8 %62 to i32
  %64 = sub nsw i32 %63, 97
  %65 = add nsw i32 %64, 10
  %66 = load i32, i32* %5, align 4
  %67 = sext i32 %66 to i64
  %68 = getelementptr inbounds [255 x i32], [255 x i32]* %8, i64 0, i64 %67
  store i32 %65, i32* %68, align 4
  br label %80

69:                                               ; preds = %51, %44
  %70 = load i32, i32* %5, align 4
  %71 = sext i32 %70 to i64
  %72 = getelementptr inbounds [255 x i8], [255 x i8]* %9, i64 0, i64 %71
  %73 = load i8, i8* %72, align 1
  %74 = sext i8 %73 to i32
  %75 = sub nsw i32 %74, 65
  %76 = add nsw i32 %75, 10
  %77 = load i32, i32* %5, align 4
  %78 = sext i32 %77 to i64
  %79 = getelementptr inbounds [255 x i32], [255 x i32]* %8, i64 0, i64 %78
  store i32 %76, i32* %79, align 4
  br label %80

80:                                               ; preds = %69, %58
  br label %81

81:                                               ; preds = %80, %34
  br label %82

82:                                               ; preds = %81
  %83 = load i32, i32* %5, align 4
  %84 = add nsw i32 %83, 1
  store i32 %84, i32* %5, align 4
  br label %16

85:                                               ; preds = %16
  store i32 0, i32* %6, align 4
  br label %86

86:                                               ; preds = %109, %85
  %87 = load i32, i32* %6, align 4
  %88 = load i32, i32* %4, align 4
  %89 = icmp slt i32 %87, %88
  br i1 %89, label %90, label %112

90:                                               ; preds = %86
  %91 = load i32, i32* %6, align 4
  %92 = sext i32 %91 to i64
  %93 = getelementptr inbounds [255 x i32], [255 x i32]* %8, i64 0, i64 %92
  %94 = load i32, i32* %93, align 4
  %95 = sitofp i32 %94 to double
  %96 = load i32, i32* %2, align 4
  %97 = sitofp i32 %96 to double
  %98 = load i32, i32* %5, align 4
  %99 = sub nsw i32 %98, 1
  %100 = sitofp i32 %99 to double
  %101 = call double @pow(double %97, double %100) #5
  %102 = fmul double %95, %101
  %103 = load i64, i64* %10, align 8
  %104 = sitofp i64 %103 to double
  %105 = fadd double %104, %102
  %106 = fptosi double %105 to i64
  store i64 %106, i64* %10, align 8
  %107 = load i32, i32* %5, align 4
  %108 = add nsw i32 %107, -1
  store i32 %108, i32* %5, align 4
  br label %109

109:                                              ; preds = %90
  %110 = load i32, i32* %6, align 4
  %111 = add nsw i32 %110, 1
  store i32 %111, i32* %6, align 4
  br label %86

112:                                              ; preds = %86
  %113 = load i64, i64* %10, align 8
  %114 = icmp eq i64 %113, 0
  br i1 %114, label %115, label %117

115:                                              ; preds = %112
  %116 = call i32 (i8*, ...) @printf(i8* getelementptr inbounds ([3 x i8], [3 x i8]* @.str.1, i64 0, i64 0))
  br label %204

117:                                              ; preds = %112
  br label %118

118:                                              ; preds = %175, %117
  %119 = load i64, i64* %10, align 8
  %120 = icmp sgt i64 %119, 0
  br i1 %120, label %121, label %182

121:                                              ; preds = %118
  %122 = load i64, i64* %10, align 8
  %123 = load i32, i32* %3, align 4
  %124 = sext i32 %123 to i64
  %125 = srem i64 %122, %124
  %126 = trunc i64 %125 to i32
  %127 = load i32, i32* %7, align 4
  %128 = sext i32 %127 to i64
  %129 = getelementptr inbounds [255 x i32], [255 x i32]* %8, i64 0, i64 %128
  store i32 %126, i32* %129, align 4
  %130 = load i32, i32* %7, align 4
  %131 = sext i32 %130 to i64
  %132 = getelementptr inbounds [255 x i32], [255 x i32]* %8, i64 0, i64 %131
  %133 = load i32, i32* %132, align 4
  %134 = icmp sge i32 %133, 0
  br i1 %134, label %135, label %151

135:                                              ; preds = %121
  %136 = load i32, i32* %7, align 4
  %137 = sext i32 %136 to i64
  %138 = getelementptr inbounds [255 x i32], [255 x i32]* %8, i64 0, i64 %137
  %139 = load i32, i32* %138, align 4
  %140 = icmp sle i32 %139, 9
  br i1 %140, label %141, label %151

141:                                              ; preds = %135
  %142 = load i32, i32* %7, align 4
  %143 = sext i32 %142 to i64
  %144 = getelementptr inbounds [255 x i32], [255 x i32]* %8, i64 0, i64 %143
  %145 = load i32, i32* %144, align 4
  %146 = add nsw i32 %145, 48
  %147 = trunc i32 %146 to i8
  %148 = load i32, i32* %7, align 4
  %149 = sext i32 %148 to i64
  %150 = getelementptr inbounds [255 x i8], [255 x i8]* %9, i64 0, i64 %149
  store i8 %147, i8* %150, align 1
  br label %175

151:                                              ; preds = %135, %121
  %152 = load i32, i32* %7, align 4
  %153 = sext i32 %152 to i64
  %154 = getelementptr inbounds [255 x i32], [255 x i32]* %8, i64 0, i64 %153
  %155 = load i32, i32* %154, align 4
  %156 = icmp sge i32 %155, 10
  br i1 %156, label %157, label %174

157:                                              ; preds = %151
  %158 = load i32, i32* %7, align 4
  %159 = sext i32 %158 to i64
  %160 = getelementptr inbounds [255 x i32], [255 x i32]* %8, i64 0, i64 %159
  %161 = load i32, i32* %160, align 4
  %162 = icmp sle i32 %161, 35
  br i1 %162, label %163, label %174

163:                                              ; preds = %157
  %164 = load i32, i32* %7, align 4
  %165 = sext i32 %164 to i64
  %166 = getelementptr inbounds [255 x i32], [255 x i32]* %8, i64 0, i64 %165
  %167 = load i32, i32* %166, align 4
  %168 = sub nsw i32 %167, 10
  %169 = add nsw i32 %168, 65
  %170 = trunc i32 %169 to i8
  %171 = load i32, i32* %7, align 4
  %172 = sext i32 %171 to i64
  %173 = getelementptr inbounds [255 x i8], [255 x i8]* %9, i64 0, i64 %172
  store i8 %170, i8* %173, align 1
  br label %174

174:                                              ; preds = %163, %157, %151
  br label %175

175:                                              ; preds = %174, %141
  %176 = load i64, i64* %10, align 8
  %177 = load i32, i32* %3, align 4
  %178 = sext i32 %177 to i64
  %179 = sdiv i64 %176, %178
  store i64 %179, i64* %10, align 8
  %180 = load i32, i32* %7, align 4
  %181 = add nsw i32 %180, 1
  store i32 %181, i32* %7, align 4
  br label %118

182:                                              ; preds = %118
  %183 = load i32, i32* %7, align 4
  %184 = add nsw i32 %183, -1
  store i32 %184, i32* %7, align 4
  br label %185

185:                                              ; preds = %188, %182
  %186 = load i32, i32* %7, align 4
  %187 = icmp sgt i32 %186, 0
  br i1 %187, label %188, label %197

188:                                              ; preds = %185
  %189 = load i32, i32* %7, align 4
  %190 = sext i32 %189 to i64
  %191 = getelementptr inbounds [255 x i8], [255 x i8]* %9, i64 0, i64 %190
  %192 = load i8, i8* %191, align 1
  %193 = sext i8 %192 to i32
  %194 = call i32 (i8*, ...) @printf(i8* getelementptr inbounds ([3 x i8], [3 x i8]* @.str.2, i64 0, i64 0), i32 %193)
  %195 = load i32, i32* %7, align 4
  %196 = add nsw i32 %195, -1
  store i32 %196, i32* %7, align 4
  br label %185

197:                                              ; preds = %185
  %198 = load i32, i32* %7, align 4
  %199 = sext i32 %198 to i64
  %200 = getelementptr inbounds [255 x i8], [255 x i8]* %9, i64 0, i64 %199
  %201 = load i8, i8* %200, align 1
  %202 = sext i8 %201 to i32
  %203 = call i32 (i8*, ...) @printf(i8* getelementptr inbounds ([4 x i8], [4 x i8]* @.str.3, i64 0, i64 0), i32 %202)
  br label %204

204:                                              ; preds = %197, %115
  ret i32 0
}

declare dso_local i32 @__isoc99_scanf(i8*, ...) #1

; Function Attrs: nounwind readonly
declare dso_local i64 @strlen(i8*) #2

; Function Attrs: nounwind
declare dso_local double @pow(double, double) #3

declare dso_local i32 @printf(i8*, ...) #1


!llvm.module.flags = !{!0}
!llvm.ident = !{!1}

!0 = !{i32 1, !"wchar_size", i32 4}
!1 = !{!"clang version 10.0.0-4ubuntu1 "}
